target datalayout = "e-m:e-p270:32:32-p271:32:32-p272:64:64-i64:64-i128:128-f80:128-n8:16:32:64-S128"
target triple = "x86_64-pc-linux-gnu"

%struct.AVChannelLayout = type { i32, i32, %union.anon.0, ptr }
%union.anon.0 = type { i64 }
%struct.AVCodecContext = type { ptr, i32, i32, ptr, i32, i32, ptr, ptr, ptr, i64, i32, i32, ptr, i32, %struct.AVRational, %struct.AVRational, %struct.AVRational, i32, i32, i32, i32, i32, %struct.AVRational, i32, i32, i32, i32, i32, i32, i32, i32, i32, i32, i32, ptr, ptr, i32, float, float, float, float, float, float, float, float, float, i32, i32, i32, i32, i32, i32, i32, i32, i32, i32, i32, i32, ptr, ptr, ptr, i32, i32, i32, i32, i32, i32, i32, i32, i32, i32, %struct.AVChannelLayout, i32, i32, i32, i32, i32, i32, i32, i32, ptr, i32, i32, i32, float, float, i32, i32, i32, i32, i32, ptr, i64, i64, float, float, i32, i32, ptr, ptr, i32, i32, i32, i32, i32, ptr, ptr, ptr, ptr, i32, i32, [8 x i64], i32, i32, i32, i32, i32, i32, i32, ptr, ptr, i32, i32, i32, i32, i32, i32, i32, i32, i32, i32, ptr, ptr, i32, i32, ptr, ptr, ptr, ptr, i32, i32, i64, i32, i32, i64, ptr, i64, ptr, i32, ptr, i32 }
%struct.AVRational = type { i32, i32 }
%struct.CNGContext = type { ptr, ptr, ptr, i32, i32, i32, i32, ptr, ptr, %struct.AVLFG }
%struct.AVLFG = type { [64 x i32], i32 }

; Function Attrs: cold nounwind optsize uwtable
define internal i32 @cng_decode_init(ptr noundef %0) #0 {
  %2 = alloca i32, align 4
  %3 = alloca ptr, align 8
  %4 = alloca ptr, align 8
  %5 = alloca %struct.AVChannelLayout, align 8
  %6 = alloca i32, align 4
  store ptr %0, ptr %3, align 8, !tbaa !4
  call void @llvm.lifetime.start.p0(i64 8, ptr %4) #10
  %7 = load ptr, ptr %3, align 8, !tbaa !4
  %8 = getelementptr inbounds nuw %struct.AVCodecContext, ptr %7, i32 0, i32 6
  %9 = load ptr, ptr %8, align 8, !tbaa !9
  store ptr %9, ptr %4, align 8, !tbaa !29
  %10 = load ptr, ptr %3, align 8, !tbaa !4
  %11 = getelementptr inbounds nuw %struct.AVCodecContext, ptr %10, i32 0, i32 70
  store i32 1, ptr %11, align 4, !tbaa !31
  %12 = load ptr, ptr %3, align 8, !tbaa !4
  %13 = getelementptr inbounds nuw %struct.AVCodecContext, ptr %12, i32 0, i32 71
  call void @av_channel_layout_uninit(ptr noundef %13)
  %14 = load ptr, ptr %3, align 8, !tbaa !4
  %15 = getelementptr inbounds nuw %struct.AVCodecContext, ptr %14, i32 0, i32 71
  %16 = getelementptr inbounds nuw %struct.AVChannelLayout, ptr %5, i32 0, i32 0
  store i32 1, ptr %16, align 8, !tbaa !32
  %17 = getelementptr inbounds nuw %struct.AVChannelLayout, ptr %5, i32 0, i32 1
  store i32 1, ptr %17, align 4, !tbaa !33
  %18 = getelementptr inbounds nuw %struct.AVChannelLayout, ptr %5, i32 0, i32 2
  store i64 4, ptr %18, align 8, !tbaa !34
  %19 = getelementptr inbounds nuw %struct.AVChannelLayout, ptr %5, i32 0, i32 3
  store ptr null, ptr %19, align 8, !tbaa !35
  call void @llvm.memcpy.p0.p0.i64(ptr align 8 %15, ptr align 8 %5, i64 24, i1 false), !tbaa.struct !36
  %20 = load ptr, ptr %3, align 8, !tbaa !4
  %21 = getelementptr inbounds nuw %struct.AVCodecContext, ptr %20, i32 0, i32 69
  store i32 8000, ptr %21, align 8, !tbaa !39
  %22 = load ptr, ptr %4, align 8, !tbaa !29
  %23 = getelementptr inbounds nuw %struct.CNGContext, ptr %22, i32 0, i32 3
  store i32 12, ptr %23, align 8, !tbaa !40
  %24 = load ptr, ptr %3, align 8, !tbaa !4
  %25 = getelementptr inbounds nuw %struct.AVCodecContext, ptr %24, i32 0, i32 72
  store i32 640, ptr %25, align 8, !tbaa !44
  %26 = load ptr, ptr %4, align 8, !tbaa !29
  %27 = getelementptr inbounds nuw %struct.CNGContext, ptr %26, i32 0, i32 3
  %28 = load i32, ptr %27, align 8, !tbaa !40
  %29 = sext i32 %28 to i64
  %30 = call noalias ptr @av_calloc(i64 noundef %29, i64 noundef 4)
  %31 = load ptr, ptr %4, align 8, !tbaa !29
  %32 = getelementptr inbounds nuw %struct.CNGContext, ptr %31, i32 0, i32 0
  store ptr %30, ptr %32, align 8, !tbaa !45
  %33 = load ptr, ptr %4, align 8, !tbaa !29
  %34 = getelementptr inbounds nuw %struct.CNGContext, ptr %33, i32 0, i32 3
  %35 = load i32, ptr %34, align 8, !tbaa !40
  %36 = sext i32 %35 to i64
  %37 = call noalias ptr @av_calloc(i64 noundef %36, i64 noundef 4)
  %38 = load ptr, ptr %4, align 8, !tbaa !29
  %39 = getelementptr inbounds nuw %struct.CNGContext, ptr %38, i32 0, i32 1
  store ptr %37, ptr %39, align 8, !tbaa !46
  %40 = load ptr, ptr %4, align 8, !tbaa !29
  %41 = getelementptr inbounds nuw %struct.CNGContext, ptr %40, i32 0, i32 3
  %42 = load i32, ptr %41, align 8, !tbaa !40
  %43 = sext i32 %42 to i64
  %44 = call noalias ptr @av_calloc(i64 noundef %43, i64 noundef 4)
  %45 = load ptr, ptr %4, align 8, !tbaa !29
  %46 = getelementptr inbounds nuw %struct.CNGContext, ptr %45, i32 0, i32 2
  store ptr %44, ptr %46, align 8, !tbaa !47
  %47 = load ptr, ptr %3, align 8, !tbaa !4
  %48 = getelementptr inbounds nuw %struct.AVCodecContext, ptr %47, i32 0, i32 72
  %49 = load i32, ptr %48, align 8, !tbaa !44
  %50 = load ptr, ptr %4, align 8, !tbaa !29
  %51 = getelementptr inbounds nuw %struct.CNGContext, ptr %50, i32 0, i32 3
  %52 = load i32, ptr %51, align 8, !tbaa !40
  %53 = add nsw i32 %49, %52
  %54 = sext i32 %53 to i64
  %55 = call noalias ptr @av_calloc(i64 noundef %54, i64 noundef 4)
  %56 = load ptr, ptr %4, align 8, !tbaa !29
  %57 = getelementptr inbounds nuw %struct.CNGContext, ptr %56, i32 0, i32 7
  store ptr %55, ptr %57, align 8, !tbaa !48
  %58 = load ptr, ptr %3, align 8, !tbaa !4
  %59 = getelementptr inbounds nuw %struct.AVCodecContext, ptr %58, i32 0, i32 72
  %60 = load i32, ptr %59, align 8, !tbaa !44
  %61 = sext i32 %60 to i64
  %62 = call noalias ptr @av_calloc(i64 noundef %61, i64 noundef 4)
  %63 = load ptr, ptr %4, align 8, !tbaa !29
  %64 = getelementptr inbounds nuw %struct.CNGContext, ptr %63, i32 0, i32 8
  store ptr %62, ptr %64, align 8, !tbaa !49
  %65 = load ptr, ptr %4, align 8, !tbaa !29
  %66 = getelementptr inbounds nuw %struct.CNGContext, ptr %65, i32 0, i32 0
  %67 = load ptr, ptr %66, align 8, !tbaa !45
  %68 = icmp ne ptr %67, null
  br i1 %68, label %69, label %89

69:                                               ; preds = %1
  %70 = load ptr, ptr %4, align 8, !tbaa !29
  %71 = getelementptr inbounds nuw %struct.CNGContext, ptr %70, i32 0, i32 1
  %72 = load ptr, ptr %71, align 8, !tbaa !46
  %73 = icmp ne ptr %72, null
  br i1 %73, label %74, label %89

74:                                               ; preds = %69
  %75 = load ptr, ptr %4, align 8, !tbaa !29
  %76 = getelementptr inbounds nuw %struct.CNGContext, ptr %75, i32 0, i32 2
  %77 = load ptr, ptr %76, align 8, !tbaa !47
  %78 = icmp ne ptr %77, null
  br i1 %78, label %79, label %89

79:                                               ; preds = %74
  %80 = load ptr, ptr %4, align 8, !tbaa !29
  %81 = getelementptr inbounds nuw %struct.CNGContext, ptr %80, i32 0, i32 7
  %82 = load ptr, ptr %81, align 8, !tbaa !48
  %83 = icmp ne ptr %82, null
  br i1 %83, label %84, label %89

84:                                               ; preds = %79
  %85 = load ptr, ptr %4, align 8, !tbaa !29
  %86 = getelementptr inbounds nuw %struct.CNGContext, ptr %85, i32 0, i32 8
  %87 = load ptr, ptr %86, align 8, !tbaa !49
  %88 = icmp ne ptr %87, null
  br i1 %88, label %90, label %89

89:                                               ; preds = %84, %79, %74, %69, %1
  store i32 -12, ptr %2, align 4
  store i32 1, ptr %6, align 4
  br label %93

90:                                               ; preds = %84
  %91 = load ptr, ptr %4, align 8, !tbaa !29
  %92 = getelementptr inbounds nuw %struct.CNGContext, ptr %91, i32 0, i32 9
  call void @av_lfg_init(ptr noundef %92, i32 noundef 0)
  store i32 0, ptr %2, align 4
  store i32 1, ptr %6, align 4
  br label %93

93:                                               ; preds = %90, %89
  call void @llvm.lifetime.end.p0(i64 8, ptr %4) #10
  %94 = load i32, ptr %2, align 4
  ret i32 %94
}