; Function Attrs: cold nounwind optsize uwtable
define internal range(i32 -12, 1) i32 @cng_decode_init(ptr noundef initializes((348, 352)) %0) #0 {
  %2 = getelementptr inbounds nuw i8, ptr %0, i64 32
  %3 = load ptr, ptr %2, align 8, !tbaa !4
  %4 = getelementptr inbounds nuw i8, ptr %0, i64 348
  store i32 1, ptr %4, align 4, !tbaa !27
  %5 = getelementptr inbounds nuw i8, ptr %0, i64 352
  tail call void @av_channel_layout_uninit(ptr noundef nonnull %5) #9
  store i32 1, ptr %5, align 8, !tbaa !28
  %.sroa.2.0..sroa_idx = getelementptr inbounds nuw i8, ptr %0, i64 356
  store i32 1, ptr %.sroa.2.0..sroa_idx, align 4, !tbaa !28
  %.sroa.3.0..sroa_idx = getelementptr inbounds nuw i8, ptr %0, i64 360
  store i64 4, ptr %.sroa.3.0..sroa_idx, align 8, !tbaa !29
  %.sroa.4.0..sroa_idx = getelementptr inbounds nuw i8, ptr %0, i64 368
  store ptr null, ptr %.sroa.4.0..sroa_idx, align 8, !tbaa !30
  %6 = getelementptr inbounds nuw i8, ptr %0, i64 344
  store i32 8000, ptr %6, align 8, !tbaa !31
  %7 = getelementptr inbounds nuw i8, ptr %3, i64 24
  store i32 12, ptr %7, align 8, !tbaa !32
  %8 = getelementptr inbounds nuw i8, ptr %0, i64 376
  store i32 640, ptr %8, align 8, !tbaa !36
  %9 = tail call noalias ptr @av_calloc(i64 noundef 12, i64 noundef 4) #9
  store ptr %9, ptr %3, align 8, !tbaa !37
  %10 = load i32, ptr %7, align 8, !tbaa !32
  %11 = sext i32 %10 to i64
  %12 = tail call noalias ptr @av_calloc(i64 noundef %11, i64 noundef 4) #9
  %13 = getelementptr inbounds nuw i8, ptr %3, i64 8
  store ptr %12, ptr %13, align 8, !tbaa !38
  %14 = load i32, ptr %7, align 8, !tbaa !32
  %15 = sext i32 %14 to i64
  %16 = tail call noalias ptr @av_calloc(i64 noundef %15, i64 noundef 4) #9
  %17 = getelementptr inbounds nuw i8, ptr %3, i64 16
  store ptr %16, ptr %17, align 8, !tbaa !39
  %18 = load i32, ptr %8, align 8, !tbaa !36
  %19 = load i32, ptr %7, align 8, !tbaa !32
  %20 = add nsw i32 %19, %18
  %21 = sext i32 %20 to i64
  %22 = tail call noalias ptr @av_calloc(i64 noundef %21, i64 noundef 4) #9
  %23 = getelementptr inbounds nuw i8, ptr %3, i64 40
  store ptr %22, ptr %23, align 8, !tbaa !40
  %24 = load i32, ptr %8, align 8, !tbaa !36
  %25 = sext i32 %24 to i64
  %26 = tail call noalias ptr @av_calloc(i64 noundef %25, i64 noundef 4) #9
  %27 = getelementptr inbounds nuw i8, ptr %3, i64 48
  store ptr %26, ptr %27, align 8, !tbaa !41
  %28 = load ptr, ptr %3, align 8, !tbaa !37
  %.not = icmp eq ptr %28, null
  br i1 %.not, label %37, label %29

29:                                               ; preds = %1
  %30 = load ptr, ptr %13, align 8, !tbaa !38
  %.not24 = icmp eq ptr %30, null
  br i1 %.not24, label %37, label %31

31:                                               ; preds = %29
  %32 = load ptr, ptr %17, align 8, !tbaa !39
  %.not25 = icmp eq ptr %32, null
  br i1 %.not25, label %37, label %33

33:                                               ; preds = %31
  %34 = load ptr, ptr %23, align 8, !tbaa !40
  %.not26 = icmp eq ptr %34, null
  %.not27 = icmp eq ptr %26, null
  %or.cond = select i1 %.not26, i1 true, i1 %.not27
  br i1 %or.cond, label %37, label %35

35:                                               ; preds = %33
  %36 = getelementptr inbounds nuw i8, ptr %3, i64 56
  tail call void @av_lfg_init(ptr noundef nonnull %36, i32 noundef 0) #9
  br label %37

37:                                               ; preds = %1, %29, %31, %33, %35
  %.0 = phi i32 [ 0, %35 ], [ -12, %33 ], [ -12, %31 ], [ -12, %29 ], [ -12, %1 ]
  ret i32 %.0
}